; Function Attrs: mustprogress nofree norecurse nosync nounwind willreturn memory(argmem: write) uwtable
define dso_local zeroext range(i8 0, 2) i8 @XML_SetReparseDeferralEnabled(ptr noundef writeonly %0, i8 noundef zeroext %1) local_unnamed_addr #2 {
  %.not = icmp ne ptr %0, null
  %or.cond = icmp ult i8 %1, 2
  %or.cond8 = and i1 %.not, %or.cond
  br i1 %or.cond8, label %3, label %5

3:                                                ; preds = %2
  %4 = getelementptr inbounds nuw i8, ptr %0, i64 96
  store i8 %1, ptr %4, align 8, !tbaa !69
  br label %5

5:                                                ; preds = %2, %3
  %.0 = phi i8 [ 1, %3 ], [ 0, %2 ]
  ret i8 %.0
}